; Function Attrs: nounwind uwtable
define hidden ptr @_Py_make_paramspec(ptr noundef readnone captures(none) %0, ptr noundef %1) local_unnamed_addr #0 {
  %3 = tail call align 8 ptr @llvm.threadlocal.address.p0(ptr align 8 @_Py_tss_tstate)
  %4 = load ptr, ptr %3, align 8, !tbaa !28
  %5 = getelementptr inbounds nuw i8, ptr %4, i64 16
  %6 = load ptr, ptr %5, align 8, !tbaa !39
  %7 = getelementptr inbounds nuw i8, ptr %6, i64 224520
  %8 = load ptr, ptr %7, align 8, !tbaa !125
  %9 = tail call ptr @_PyObject_GC_New(ptr noundef %8) #8
  %10 = icmp eq ptr %9, null
  br i1 %10, label %paramspec_alloc.exit, label %11

11:                                               ; preds = %2
  %12 = load i32, ptr %1, align 8, !tbaa !27
  %13 = icmp slt i32 %12, 0
  br i1 %13, label %_Py_NewRef.exit.i, label %14

14:                                               ; preds = %11
  %15 = add nuw i32 %12, 1
  store i32 %15, ptr %1, align 8, !tbaa !27
  br label %_Py_NewRef.exit.i

_Py_NewRef.exit.i:                                ; preds = %14, %11
  %16 = getelementptr inbounds nuw i8, ptr %9, i64 16
  store ptr %1, ptr %16, align 8, !tbaa !126
  %17 = getelementptr inbounds nuw i8, ptr %9, i64 24
  store ptr null, ptr %17, align 8, !tbaa !128
  %18 = getelementptr inbounds nuw i8, ptr %9, i64 48
  store i8 0, ptr %18, align 8, !tbaa !129
  %19 = getelementptr inbounds nuw i8, ptr %9, i64 49
  store i8 0, ptr %19, align 1, !tbaa !130
  %20 = getelementptr inbounds nuw i8, ptr %9, i64 50
  store i8 1, ptr %20, align 2, !tbaa !131
  %21 = getelementptr inbounds nuw i8, ptr %9, i64 32
  %22 = getelementptr i8, ptr %9, i64 -16
  tail call void @llvm.memset.p0.i64(ptr noundef nonnull align 8 dereferenceable(16) %21, i8 0, i64 16, i1 false)
  %23 = load ptr, ptr %3, align 8, !tbaa !28
  %24 = getelementptr inbounds nuw i8, ptr %23, i64 16
  %25 = load ptr, ptr %24, align 8, !tbaa !39
  %26 = getelementptr inbounds nuw i8, ptr %25, i64 7424
  %27 = getelementptr inbounds nuw i8, ptr %25, i64 7432
  %28 = load i64, ptr %27, align 8, !tbaa !113
  %29 = inttoptr i64 %28 to ptr
  %30 = ptrtoint ptr %22 to i64
  %31 = load i64, ptr %29, align 8, !tbaa !114
  %32 = and i64 %31, 3
  %33 = or i64 %32, %30
  store i64 %33, ptr %29, align 8, !tbaa !114
  %34 = getelementptr i8, ptr %9, i64 -8
  %35 = load i64, ptr %34, align 8, !tbaa !113
  %36 = and i64 %35, 3
  %37 = or i64 %36, %28
  store i64 %37, ptr %34, align 8, !tbaa !113
  %38 = getelementptr inbounds nuw i8, ptr %25, i64 7632
  %39 = load i32, ptr %38, align 8, !tbaa !115
  %40 = xor i32 %39, 1
  %41 = sext i32 %40 to i64
  %42 = ptrtoint ptr %26 to i64
  %43 = or i64 %41, %42
  store i64 %43, ptr %22, align 8, !tbaa !114
  store i64 %30, ptr %27, align 8, !tbaa !113
  br label %paramspec_alloc.exit

paramspec_alloc.exit:                             ; preds = %2, %_Py_NewRef.exit.i
  ret ptr %9
}